target datalayout = "e-m:e-p270:32:32-p271:32:32-p272:64:64-i64:64-i128:128-f80:128-n8:16:32:64-S128"
target triple = "x86_64-pc-linux-gnu"

%struct.evthread_lock_callbacks = type { i32, i32, ptr, ptr, ptr, ptr }
%struct.evbuffer = type { ptr, ptr, ptr, i64, i64, i64, i64, ptr, i8, i32, ptr, i32, %struct.event_callback, %struct.evbuffer_cb_queue, ptr }
%struct.event_callback = type { %struct.anon, i16, i8, i8, %union.anon, ptr }
%struct.anon = type { ptr, ptr }
%union.anon = type { ptr }
%struct.evbuffer_cb_queue = type { ptr }

@evthread_lock_fns_ = external global %struct.evthread_lock_callbacks, align 8

; Function Attrs: nounwind uwtable
define i32 @evbuffer_freeze(ptr noundef %0, i32 noundef %1) #0 {
  %3 = alloca ptr, align 8
  %4 = alloca i32, align 4
  store ptr %0, ptr %3, align 8
  store i32 %1, ptr %4, align 4
  br label %5

5:                                                ; preds = %2
  br label %6

6:                                                ; preds = %5
  %7 = load ptr, ptr %3, align 8
  %8 = getelementptr inbounds nuw %struct.evbuffer, ptr %7, i32 0, i32 7
  %9 = load ptr, ptr %8, align 8
  %10 = icmp ne ptr %9, null
  br i1 %10, label %11, label %17

11:                                               ; preds = %6
  %12 = load ptr, ptr getelementptr inbounds nuw (%struct.evthread_lock_callbacks, ptr @evthread_lock_fns_, i32 0, i32 4), align 8
  %13 = load ptr, ptr %3, align 8
  %14 = getelementptr inbounds nuw %struct.evbuffer, ptr %13, i32 0, i32 7
  %15 = load ptr, ptr %14, align 8
  %16 = call i32 %12(i32 noundef 0, ptr noundef %15)
  br label %17

17:                                               ; preds = %11, %6
  br label %18

18:                                               ; preds = %17
  br label %19

19:                                               ; preds = %18
  %20 = load i32, ptr %4, align 4
  %21 = icmp ne i32 %20, 0
  br i1 %21, label %22, label %28

22:                                               ; preds = %19
  %23 = load ptr, ptr %3, align 8
  %24 = getelementptr inbounds nuw %struct.evbuffer, ptr %23, i32 0, i32 8
  %25 = load i8, ptr %24, align 8
  %26 = and i8 %25, -3
  %27 = or i8 %26, 2
  store i8 %27, ptr %24, align 8
  br label %34

28:                                               ; preds = %19
  %29 = load ptr, ptr %3, align 8
  %30 = getelementptr inbounds nuw %struct.evbuffer, ptr %29, i32 0, i32 8
  %31 = load i8, ptr %30, align 8
  %32 = and i8 %31, -5
  %33 = or i8 %32, 4
  store i8 %33, ptr %30, align 8
  br label %34

34:                                               ; preds = %28, %22
  br label %35

35:                                               ; preds = %34
  br label %36

36:                                               ; preds = %35
  %37 = load ptr, ptr %3, align 8
  %38 = getelementptr inbounds nuw %struct.evbuffer, ptr %37, i32 0, i32 7
  %39 = load ptr, ptr %38, align 8
  %40 = icmp ne ptr %39, null
  br i1 %40, label %41, label %47

41:                                               ; preds = %36
  %42 = load ptr, ptr getelementptr inbounds nuw (%struct.evthread_lock_callbacks, ptr @evthread_lock_fns_, i32 0, i32 5), align 8
  %43 = load ptr, ptr %3, align 8
  %44 = getelementptr inbounds nuw %struct.evbuffer, ptr %43, i32 0, i32 7
  %45 = load ptr, ptr %44, align 8
  %46 = call i32 %42(i32 noundef 0, ptr noundef %45)
  br label %47

47:                                               ; preds = %41, %36
  br label %48

48:                                               ; preds = %47
  br label %49

49:                                               ; preds = %48
  ret i32 0
}