; Function Attrs: nounwind uwtable
define noundef i32 @evbuffer_freeze(ptr noundef captures(none) %0, i32 noundef %1) local_unnamed_addr #1 {
  %3 = getelementptr inbounds nuw i8, ptr %0, i64 56
  %4 = load ptr, ptr %3, align 8
  %.not = icmp eq ptr %4, null
  br i1 %.not, label %8, label %5

5:                                                ; preds = %2
  %6 = load ptr, ptr getelementptr inbounds nuw (i8, ptr @evthread_lock_fns_, i64 24), align 8
  %7 = tail call i32 %6(i32 noundef 0, ptr noundef nonnull %4) #16
  br label %8

8:                                                ; preds = %5, %2
  %.not7 = icmp eq i32 %1, 0
  %9 = getelementptr inbounds nuw i8, ptr %0, i64 64
  %10 = load i8, ptr %9, align 8
  %. = select i1 %.not7, i8 4, i8 2
  %11 = or i8 %10, %.
  store i8 %11, ptr %9, align 8
  %12 = load ptr, ptr %3, align 8
  %.not8 = icmp eq ptr %12, null
  br i1 %.not8, label %16, label %13

13:                                               ; preds = %8
  %14 = load ptr, ptr getelementptr inbounds nuw (i8, ptr @evthread_lock_fns_, i64 32), align 8
  %15 = tail call i32 %14(i32 noundef 0, ptr noundef nonnull %12) #16
  br label %16

16:                                               ; preds = %13, %8
  ret i32 0
}